target datalayout = "e-m:e-p270:32:32-p271:32:32-p272:64:64-i64:64-i128:128-f80:128-n8:16:32:64-S128"
target triple = "x86_64-pc-linux-gnu"

%struct.FunctionCallInfoBaseData = type { ptr, ptr, ptr, i32, i8, i16, [0 x %struct.NullableDatum] }
%struct.NullableDatum = type { i64, i8 }
%struct.VacAttrStats = type { i32, i32, i32, ptr, i32, ptr, ptr, i32, ptr, i8, float, i32, float, [5 x i16], [5 x i32], [5 x i32], [5 x i32], [5 x ptr], [5 x i32], [5 x ptr], [5 x i32], [5 x i16], [5 x i8], [5 x i8], i32, ptr, ptr, ptr, ptr, i32 }
%struct.TypeCacheEntry = type { i32, i32, i16, i8, i8, i8, i8, i32, i32, i32, i32, i32, i32, i32, i32, i32, i32, i32, i32, i32, i32, %struct.FmgrInfo, %struct.FmgrInfo, %struct.FmgrInfo, %struct.FmgrInfo, ptr, i64, ptr, i32, i32, %struct.FmgrInfo, %struct.FmgrInfo, %struct.FmgrInfo, ptr, i32, i32, ptr, i32, ptr, ptr }
%struct.FmgrInfo = type { ptr, i32, i16, i8, i8, i8, ptr, ptr, ptr }
%struct.ArrayAnalyzeExtraData = type { i32, i32, i32, i8, i16, i8, ptr, ptr, ptr, ptr }

@.str = private unnamed_addr constant [51 x i8] c"array_typanalyze was invoked for non-array type %u\00", align 1
@.str.1 = private unnamed_addr constant [19 x i8] c"array_typanalyze.c\00", align 1
@__func__.array_typanalyze = private unnamed_addr constant [17 x i8] c"array_typanalyze\00", align 1

; Function Attrs: inlinehint nounwind uwtable
define internal i64 @BoolGetDatum(i1 noundef zeroext %0) #2 {
  %2 = alloca i8, align 1
  %3 = zext i1 %0 to i8
  store i8 %3, ptr %2, align 1
  %4 = load i8, ptr %2, align 1, !range !4, !noundef !5
  %5 = trunc i8 %4 to i1
  %6 = select i1 %5, i32 1, i32 0
  %7 = sext i32 %6 to i64
  ret i64 %7
}

; Function Attrs: inlinehint nounwind uwtable
define internal ptr @DatumGetPointer(i64 noundef %0) #2 {
  %2 = alloca i64, align 8
  store i64 %0, ptr %2, align 8
  %3 = load i64, ptr %2, align 8
  %4 = inttoptr i64 %3 to ptr
  ret ptr %4
}

; Function Attrs: nounwind uwtable
define dso_local i64 @array_typanalyze(ptr noundef %0) #0 {
  %2 = alloca i64, align 8
  %3 = alloca ptr, align 8
  %4 = alloca ptr, align 8
  %5 = alloca i32, align 4
  %6 = alloca ptr, align 8
  %7 = alloca ptr, align 8
  %8 = alloca i32, align 4
  store ptr %0, ptr %3, align 8
  call void @llvm.lifetime.start.p0(i64 8, ptr %4) #5
  %9 = load ptr, ptr %3, align 8
  %10 = getelementptr inbounds nuw %struct.FunctionCallInfoBaseData, ptr %9, i32 0, i32 6
  %11 = getelementptr inbounds [0 x %struct.NullableDatum], ptr %10, i64 0, i64 0
  %12 = getelementptr inbounds nuw %struct.NullableDatum, ptr %11, i32 0, i32 0
  %13 = load i64, ptr %12, align 8
  %14 = call ptr @DatumGetPointer(i64 noundef %13)
  store ptr %14, ptr %4, align 8
  call void @llvm.lifetime.start.p0(i64 4, ptr %5) #5
  call void @llvm.lifetime.start.p0(i64 8, ptr %6) #5
  call void @llvm.lifetime.start.p0(i64 8, ptr %7) #5
  %15 = load ptr, ptr %4, align 8
  %16 = call zeroext i1 @std_typanalyze(ptr noundef %15)
  br i1 %16, label %19, label %17

17:                                               ; preds = %1
  %18 = call i64 @BoolGetDatum(i1 noundef zeroext false)
  store i64 %18, ptr %2, align 8
  store i32 1, ptr %8, align 4
  br label %119

19:                                               ; preds = %1
  %20 = load ptr, ptr %4, align 8
  %21 = getelementptr inbounds nuw %struct.VacAttrStats, ptr %20, i32 0, i32 1
  %22 = load i32, ptr %21, align 4
  %23 = call i32 @get_base_element_type(i32 noundef %22)
  store i32 %23, ptr %5, align 4
  %24 = load i32, ptr %5, align 4
  %25 = icmp ne i32 %24, 0
  br i1 %25, label %40, label %26

26:                                               ; preds = %19
  br label %27

27:                                               ; preds = %26
  br i1 true, label %28, label %30

28:                                               ; preds = %27
  %29 = call zeroext i1 @errstart_cold(i32 noundef 21, ptr noundef null) #6
  br i1 %29, label %32, label %37

30:                                               ; preds = %27
  %31 = call zeroext i1 @errstart(i32 noundef 21, ptr noundef null)
  br i1 %31, label %32, label %37

32:                                               ; preds = %30, %28
  %33 = load ptr, ptr %4, align 8
  %34 = getelementptr inbounds nuw %struct.VacAttrStats, ptr %33, i32 0, i32 1
  %35 = load i32, ptr %34, align 4
  %36 = call i32 (ptr, ...) @errmsg_internal(ptr noundef @.str, i32 noundef %35)
  call void @errfinish(ptr noundef @.str.1, i32 noundef 118, ptr noundef @__func__.array_typanalyze)
  br label %37

37:                                               ; preds = %32, %30, %28
  unreachable

38:                                               ; No predecessors!
  br label %39

39:                                               ; preds = %38
  br label %40

40:                                               ; preds = %39, %19
  %41 = load i32, ptr %5, align 4
  %42 = call ptr @lookup_type_cache(i32 noundef %41, i32 noundef 193)
  store ptr %42, ptr %6, align 8
  %43 = load ptr, ptr %6, align 8
  %44 = getelementptr inbounds nuw %struct.TypeCacheEntry, ptr %43, i32 0, i32 15
  %45 = load i32, ptr %44, align 8
  %46 = icmp ne i32 %45, 0
  br i1 %46, label %47, label %59

47:                                               ; preds = %40
  %48 = load ptr, ptr %6, align 8
  %49 = getelementptr inbounds nuw %struct.TypeCacheEntry, ptr %48, i32 0, i32 22
  %50 = getelementptr inbounds nuw %struct.FmgrInfo, ptr %49, i32 0, i32 1
  %51 = load i32, ptr %50, align 8
  %52 = icmp ne i32 %51, 0
  br i1 %52, label %53, label %59

53:                                               ; preds = %47
  %54 = load ptr, ptr %6, align 8
  %55 = getelementptr inbounds nuw %struct.TypeCacheEntry, ptr %54, i32 0, i32 23
  %56 = getelementptr inbounds nuw %struct.FmgrInfo, ptr %55, i32 0, i32 1
  %57 = load i32, ptr %56, align 8
  %58 = icmp ne i32 %57, 0
  br i1 %58, label %61, label %59

59:                                               ; preds = %53, %47, %40
  %60 = call i64 @BoolGetDatum(i1 noundef zeroext true)
  store i64 %60, ptr %2, align 8
  store i32 1, ptr %8, align 4
  br label %119

61:                                               ; preds = %53
  %62 = call ptr @palloc(i64 noundef 56)
  store ptr %62, ptr %7, align 8
  %63 = load ptr, ptr %6, align 8
  %64 = getelementptr inbounds nuw %struct.TypeCacheEntry, ptr %63, i32 0, i32 0
  %65 = load i32, ptr %64, align 8
  %66 = load ptr, ptr %7, align 8
  %67 = getelementptr inbounds nuw %struct.ArrayAnalyzeExtraData, ptr %66, i32 0, i32 0
  store i32 %65, ptr %67, align 8
  %68 = load ptr, ptr %6, align 8
  %69 = getelementptr inbounds nuw %struct.TypeCacheEntry, ptr %68, i32 0, i32 15
  %70 = load i32, ptr %69, align 8
  %71 = load ptr, ptr %7, align 8
  %72 = getelementptr inbounds nuw %struct.ArrayAnalyzeExtraData, ptr %71, i32 0, i32 1
  store i32 %70, ptr %72, align 4
  %73 = load ptr, ptr %4, align 8
  %74 = getelementptr inbounds nuw %struct.VacAttrStats, ptr %73, i32 0, i32 4
  %75 = load i32, ptr %74, align 8
  %76 = load ptr, ptr %7, align 8
  %77 = getelementptr inbounds nuw %struct.ArrayAnalyzeExtraData, ptr %76, i32 0, i32 2
  store i32 %75, ptr %77, align 8
  %78 = load ptr, ptr %6, align 8
  %79 = getelementptr inbounds nuw %struct.TypeCacheEntry, ptr %78, i32 0, i32 3
  %80 = load i8, ptr %79, align 2, !range !4, !noundef !5
  %81 = trunc i8 %80 to i1
  %82 = load ptr, ptr %7, align 8
  %83 = getelementptr inbounds nuw %struct.ArrayAnalyzeExtraData, ptr %82, i32 0, i32 3
  %84 = zext i1 %81 to i8
  store i8 %84, ptr %83, align 4
  %85 = load ptr, ptr %6, align 8
  %86 = getelementptr inbounds nuw %struct.TypeCacheEntry, ptr %85, i32 0, i32 2
  %87 = load i16, ptr %86, align 8
  %88 = load ptr, ptr %7, align 8
  %89 = getelementptr inbounds nuw %struct.ArrayAnalyzeExtraData, ptr %88, i32 0, i32 4
  store i16 %87, ptr %89, align 2
  %90 = load ptr, ptr %6, align 8
  %91 = getelementptr inbounds nuw %struct.TypeCacheEntry, ptr %90, i32 0, i32 4
  %92 = load i8, ptr %91, align 1
  %93 = load ptr, ptr %7, align 8
  %94 = getelementptr inbounds nuw %struct.ArrayAnalyzeExtraData, ptr %93, i32 0, i32 5
  store i8 %92, ptr %94, align 8
  %95 = load ptr, ptr %6, align 8
  %96 = getelementptr inbounds nuw %struct.TypeCacheEntry, ptr %95, i32 0, i32 22
  %97 = load ptr, ptr %7, align 8
  %98 = getelementptr inbounds nuw %struct.ArrayAnalyzeExtraData, ptr %97, i32 0, i32 6
  store ptr %96, ptr %98, align 8
  %99 = load ptr, ptr %6, align 8
  %100 = getelementptr inbounds nuw %struct.TypeCacheEntry, ptr %99, i32 0, i32 23
  %101 = load ptr, ptr %7, align 8
  %102 = getelementptr inbounds nuw %struct.ArrayAnalyzeExtraData, ptr %101, i32 0, i32 7
  store ptr %100, ptr %102, align 8
  %103 = load ptr, ptr %4, align 8
  %104 = getelementptr inbounds nuw %struct.VacAttrStats, ptr %103, i32 0, i32 6
  %105 = load ptr, ptr %104, align 8
  %106 = load ptr, ptr %7, align 8
  %107 = getelementptr inbounds nuw %struct.ArrayAnalyzeExtraData, ptr %106, i32 0, i32 8
  store ptr %105, ptr %107, align 8
  %108 = load ptr, ptr %4, align 8
  %109 = getelementptr inbounds nuw %struct.VacAttrStats, ptr %108, i32 0, i32 8
  %110 = load ptr, ptr %109, align 8
  %111 = load ptr, ptr %7, align 8
  %112 = getelementptr inbounds nuw %struct.ArrayAnalyzeExtraData, ptr %111, i32 0, i32 9
  store ptr %110, ptr %112, align 8
  %113 = load ptr, ptr %4, align 8
  %114 = getelementptr inbounds nuw %struct.VacAttrStats, ptr %113, i32 0, i32 6
  store ptr @compute_array_stats, ptr %114, align 8
  %115 = load ptr, ptr %7, align 8
  %116 = load ptr, ptr %4, align 8
  %117 = getelementptr inbounds nuw %struct.VacAttrStats, ptr %116, i32 0, i32 8
  store ptr %115, ptr %117, align 8
  %118 = call i64 @BoolGetDatum(i1 noundef zeroext true)
  store i64 %118, ptr %2, align 8
  store i32 1, ptr %8, align 4
  br label %119

119:                                              ; preds = %61, %59, %17
  call void @llvm.lifetime.end.p0(i64 8, ptr %7) #5
  call void @llvm.lifetime.end.p0(i64 8, ptr %6) #5
  call void @llvm.lifetime.end.p0(i64 4, ptr %5) #5
  call void @llvm.lifetime.end.p0(i64 8, ptr %4) #5
  %120 = load i64, ptr %2, align 8
  ret i64 %120
}