; Function Attrs: nounwind uwtable
define dso_local range(i64 0, 2) i64 @array_typanalyze(ptr noundef readonly captures(none) %0) local_unnamed_addr #0 {
  %2 = getelementptr inbounds nuw i8, ptr %0, i64 32
  %3 = load i64, ptr %2, align 8
  %4 = inttoptr i64 %3 to ptr
  %5 = tail call zeroext i1 @std_typanalyze(ptr noundef %4) #7
  br i1 %5, label %6, label %51

6:                                                ; preds = %1
  %7 = getelementptr inbounds nuw i8, ptr %4, i64 4
  %8 = load i32, ptr %7, align 4
  %9 = tail call i32 @get_base_element_type(i32 noundef %8) #7
  %.not = icmp eq i32 %9, 0
  br i1 %.not, label %10, label %14

10:                                               ; preds = %6
  %11 = tail call zeroext i1 @errstart_cold(i32 noundef 21, ptr noundef null) #8
  tail call void @llvm.assume(i1 %11)
  %12 = load i32, ptr %7, align 4
  %13 = tail call i32 (ptr, ...) @errmsg_internal(ptr noundef nonnull @.str, i32 noundef %12) #7
  tail call void @errfinish(ptr noundef nonnull @.str.1, i32 noundef 118, ptr noundef nonnull @__func__.array_typanalyze) #7
  unreachable

14:                                               ; preds = %6
  %15 = tail call ptr @lookup_type_cache(i32 noundef %9, i32 noundef 193) #7
  %16 = getelementptr inbounds nuw i8, ptr %15, i64 48
  %17 = load i32, ptr %16, align 8
  %.not33 = icmp eq i32 %17, 0
  br i1 %.not33, label %51, label %18

18:                                               ; preds = %14
  %19 = getelementptr inbounds nuw i8, ptr %15, i64 120
  %20 = getelementptr inbounds nuw i8, ptr %15, i64 128
  %21 = load i32, ptr %20, align 8
  %.not34 = icmp eq i32 %21, 0
  br i1 %.not34, label %51, label %22

22:                                               ; preds = %18
  %23 = getelementptr inbounds nuw i8, ptr %15, i64 176
  %24 = load i32, ptr %23, align 8
  %.not35 = icmp eq i32 %24, 0
  br i1 %.not35, label %51, label %25

25:                                               ; preds = %22
  %26 = getelementptr inbounds nuw i8, ptr %15, i64 168
  %27 = tail call ptr @palloc(i64 noundef 56) #7
  %28 = load i32, ptr %15, align 8
  store i32 %28, ptr %27, align 8
  %29 = load i32, ptr %16, align 8
  %30 = getelementptr inbounds nuw i8, ptr %27, i64 4
  store i32 %29, ptr %30, align 4
  %31 = getelementptr inbounds nuw i8, ptr %4, i64 24
  %32 = load i32, ptr %31, align 8
  %33 = getelementptr inbounds nuw i8, ptr %27, i64 8
  store i32 %32, ptr %33, align 8
  %34 = getelementptr inbounds nuw i8, ptr %15, i64 10
  %35 = load i8, ptr %34, align 2, !range !4, !noundef !5
  %36 = getelementptr inbounds nuw i8, ptr %27, i64 12
  store i8 %35, ptr %36, align 4
  %37 = getelementptr inbounds nuw i8, ptr %15, i64 8
  %38 = load i16, ptr %37, align 8
  %39 = getelementptr inbounds nuw i8, ptr %27, i64 14
  store i16 %38, ptr %39, align 2
  %40 = getelementptr inbounds nuw i8, ptr %15, i64 11
  %41 = load i8, ptr %40, align 1
  %42 = getelementptr inbounds nuw i8, ptr %27, i64 16
  store i8 %41, ptr %42, align 8
  %43 = getelementptr inbounds nuw i8, ptr %27, i64 24
  store ptr %19, ptr %43, align 8
  %44 = getelementptr inbounds nuw i8, ptr %27, i64 32
  store ptr %26, ptr %44, align 8
  %45 = getelementptr inbounds nuw i8, ptr %4, i64 40
  %46 = load ptr, ptr %45, align 8
  %47 = getelementptr inbounds nuw i8, ptr %27, i64 40
  store ptr %46, ptr %47, align 8
  %48 = getelementptr inbounds nuw i8, ptr %4, i64 56
  %49 = load ptr, ptr %48, align 8
  %50 = getelementptr inbounds nuw i8, ptr %27, i64 48
  store ptr %49, ptr %50, align 8
  store ptr @compute_array_stats, ptr %45, align 8
  store ptr %27, ptr %48, align 8
  br label %51

51:                                               ; preds = %14, %18, %22, %1, %25
  %.0 = phi i64 [ 1, %25 ], [ 0, %1 ], [ 1, %22 ], [ 1, %18 ], [ 1, %14 ]
  ret i64 %.0
}